target datalayout = "e-m:e-p270:32:32-p271:32:32-p272:64:64-i64:64-i128:128-f80:128-n8:16:32:64-S128"
target triple = "x86_64-pc-linux-gnu"

%struct.pmi2_job_info = type { %struct.slurm_step_id_msg, i32, i32, i32, i32, i32, ptr, i32, i32, ptr, ptr, ptr, ptr, ptr, ptr, ptr, ptr }
%struct.slurm_step_id_msg = type { i64, i32, i32, i32 }
%struct.client_response = type { ptr }

@pmi_version = internal global i32 0, align 4
@pmi_subversion = internal global i32 0, align 4
@.str.3 = private unnamed_addr constant [9 x i8] c"client.c\00", align 1
@__func__.client_resp_new = private unnamed_addr constant [16 x i8] c"client_resp_new\00", align 1
@.str.47 = private unnamed_addr constant [30 x i8] c"cmd=barrier_out rc=%d msg=%s\0A\00", align 1
@.str.48 = private unnamed_addr constant [23 x i8] c"cmd=barrier_out rc=%d\0A\00", align 1
@.str.49 = private unnamed_addr constant [40 x i8] c"cmd=kvs-fence-response;rc=%d;errmsg=%s;\00", align 1
@.str.50 = private unnamed_addr constant [30 x i8] c"cmd=kvs-fence-response;rc=%d;\00", align 1
@job_info = external global %struct.pmi2_job_info, align 8
@task_socks = external global ptr, align 8

; Function Attrs: nounwind uwtable
define dso_local void @client_resp_free(ptr noundef %0) #0 {
  %2 = alloca ptr, align 8
  store ptr %0, ptr %2, align 8
  %3 = load ptr, ptr %2, align 8
  %4 = icmp ne ptr %3, null
  br i1 %4, label %5, label %8

5:                                                ; preds = %1
  %6 = load ptr, ptr %2, align 8
  %7 = getelementptr inbounds nuw %struct.client_response, ptr %6, i32 0, i32 0
  call void @slurm_xfree(ptr noundef %7)
  call void @slurm_xfree(ptr noundef %2)
  br label %8

8:                                                ; preds = %5, %1
  ret void
}

; Function Attrs: nounwind uwtable
define dso_local i32 @is_pmi20() #0 {
  %1 = load i32, ptr @pmi_version, align 4
  %2 = icmp eq i32 %1, 2
  br i1 %2, label %3, label %6

3:                                                ; preds = %0
  %4 = load i32, ptr @pmi_subversion, align 4
  %5 = icmp eq i32 %4, 0
  br label %6

6:                                                ; preds = %3, %0
  %7 = phi i1 [ false, %0 ], [ %5, %3 ]
  %8 = zext i1 %7 to i32
  ret i32 %8
}

; Function Attrs: nounwind uwtable
define internal ptr @_str_replace(ptr noundef %0, i8 noundef signext %1, i8 noundef signext %2) #0 {
  %4 = alloca ptr, align 8
  %5 = alloca i8, align 1
  %6 = alloca i8, align 1
  %7 = alloca ptr, align 8
  %8 = alloca ptr, align 8
  store ptr %0, ptr %4, align 8
  store i8 %1, ptr %5, align 1
  store i8 %2, ptr %6, align 1
  call void @llvm.lifetime.start.p0(i64 8, ptr %7) #7
  call void @llvm.lifetime.start.p0(i64 8, ptr %8) #7
  %9 = load ptr, ptr %4, align 8
  %10 = call ptr @slurm_xstrdup(ptr noundef %9)
  store ptr %10, ptr %7, align 8
  %11 = load ptr, ptr %7, align 8
  store ptr %11, ptr %8, align 8
  br label %12

12:                                               ; preds = %26, %3
  %13 = load ptr, ptr %8, align 8
  %14 = load i8, ptr %13, align 1
  %15 = icmp ne i8 %14, 0
  br i1 %15, label %16, label %29

16:                                               ; preds = %12
  %17 = load ptr, ptr %8, align 8
  %18 = load i8, ptr %17, align 1
  %19 = sext i8 %18 to i32
  %20 = load i8, ptr %5, align 1
  %21 = sext i8 %20 to i32
  %22 = icmp eq i32 %19, %21
  br i1 %22, label %23, label %26

23:                                               ; preds = %16
  %24 = load i8, ptr %6, align 1
  %25 = load ptr, ptr %8, align 8
  store i8 %24, ptr %25, align 1
  br label %26

26:                                               ; preds = %23, %16
  %27 = load ptr, ptr %8, align 8
  %28 = getelementptr inbounds nuw i8, ptr %27, i32 1
  store ptr %28, ptr %8, align 8
  br label %12, !llvm.loop !25

29:                                               ; preds = %12
  %30 = load ptr, ptr %7, align 8
  call void @llvm.lifetime.end.p0(i64 8, ptr %8) #7
  call void @llvm.lifetime.end.p0(i64 8, ptr %7) #7
  ret ptr %30
}

; Function Attrs: nounwind uwtable
define dso_local i32 @is_pmi11() #0 {
  %1 = load i32, ptr @pmi_version, align 4
  %2 = icmp eq i32 %1, 1
  br i1 %2, label %3, label %6

3:                                                ; preds = %0
  %4 = load i32, ptr @pmi_subversion, align 4
  %5 = icmp eq i32 %4, 1
  br label %6

6:                                                ; preds = %3, %0
  %7 = phi i1 [ false, %0 ], [ %5, %3 ]
  %8 = zext i1 %7 to i32
  ret i32 %8
}

; Function Attrs: nounwind uwtable
define dso_local ptr @client_resp_new() #0 {
  %1 = call ptr @slurm_xcalloc(i64 noundef 1, i64 noundef 8, i1 noundef zeroext true, i1 noundef zeroext false, ptr noundef @.str.3, i32 noundef 526, ptr noundef @__func__.client_resp_new)
  ret ptr %1
}

; Function Attrs: nounwind uwtable
define dso_local i32 @send_kvs_fence_resp_to_clients(i32 noundef %0, ptr noundef %1) #0 {
  %3 = alloca i32, align 4
  %4 = alloca ptr, align 8
  %5 = alloca i32, align 4
  %6 = alloca ptr, align 8
  %7 = alloca ptr, align 8
  store i32 %0, ptr %3, align 4
  store ptr %1, ptr %4, align 8
  call void @llvm.lifetime.start.p0(i64 4, ptr %5) #7
  store i32 0, ptr %5, align 4
  call void @llvm.lifetime.start.p0(i64 8, ptr %6) #7
  call void @llvm.lifetime.start.p0(i64 8, ptr %7) #7
  %8 = call ptr @client_resp_new()
  store ptr %8, ptr %6, align 8
  %9 = call i32 @is_pmi11()
  %10 = icmp ne i32 %9, 0
  br i1 %10, label %11, label %35

11:                                               ; preds = %2
  %12 = load i32, ptr %3, align 4
  %13 = icmp ne i32 %12, 0
  br i1 %13, label %14, label %27

14:                                               ; preds = %11
  %15 = load ptr, ptr %4, align 8
  %16 = icmp ne ptr %15, null
  br i1 %16, label %17, label %27

17:                                               ; preds = %14
  %18 = load ptr, ptr %4, align 8
  %19 = call ptr @_str_replace(ptr noundef %18, i8 noundef signext 32, i8 noundef signext 95)
  store ptr %19, ptr %7, align 8
  br label %20

20:                                               ; preds = %17
  %21 = load ptr, ptr %6, align 8
  %22 = getelementptr inbounds nuw %struct.client_response, ptr %21, i32 0, i32 0
  %23 = load i32, ptr %3, align 4
  %24 = load ptr, ptr %7, align 8
  call void (ptr, ptr, ...) @slurm_xstrfmtcat(ptr noundef %22, ptr noundef @.str.47, i32 noundef %23, ptr noundef %24)
  br label %25

25:                                               ; preds = %20
  br label %26

26:                                               ; preds = %25
  call void @slurm_xfree(ptr noundef %7)
  br label %34

27:                                               ; preds = %14, %11
  br label %28

28:                                               ; preds = %27
  %29 = load ptr, ptr %6, align 8
  %30 = getelementptr inbounds nuw %struct.client_response, ptr %29, i32 0, i32 0
  %31 = load i32, ptr %3, align 4
  call void (ptr, ptr, ...) @slurm_xstrfmtcat(ptr noundef %30, ptr noundef @.str.48, i32 noundef %31)
  br label %32

32:                                               ; preds = %28
  br label %33

33:                                               ; preds = %32
  br label %34

34:                                               ; preds = %33, %26
  br label %63

35:                                               ; preds = %2
  %36 = call i32 @is_pmi20()
  %37 = icmp ne i32 %36, 0
  br i1 %37, label %38, label %62

38:                                               ; preds = %35
  %39 = load i32, ptr %3, align 4
  %40 = icmp ne i32 %39, 0
  br i1 %40, label %41, label %54

41:                                               ; preds = %38
  %42 = load ptr, ptr %4, align 8
  %43 = icmp ne ptr %42, null
  br i1 %43, label %44, label %54

44:                                               ; preds = %41
  %45 = load ptr, ptr %4, align 8
  %46 = call ptr @_str_replace(ptr noundef %45, i8 noundef signext 59, i8 noundef signext 95)
  store ptr %46, ptr %7, align 8
  br label %47

47:                                               ; preds = %44
  %48 = load ptr, ptr %6, align 8
  %49 = getelementptr inbounds nuw %struct.client_response, ptr %48, i32 0, i32 0
  %50 = load i32, ptr %3, align 4
  %51 = load ptr, ptr %7, align 8
  call void (ptr, ptr, ...) @slurm_xstrfmtcat(ptr noundef %49, ptr noundef @.str.49, i32 noundef %50, ptr noundef %51)
  br label %52

52:                                               ; preds = %47
  br label %53

53:                                               ; preds = %52
  call void @slurm_xfree(ptr noundef %7)
  br label %61

54:                                               ; preds = %41, %38
  br label %55

55:                                               ; preds = %54
  %56 = load ptr, ptr %6, align 8
  %57 = getelementptr inbounds nuw %struct.client_response, ptr %56, i32 0, i32 0
  %58 = load i32, ptr %3, align 4
  call void (ptr, ptr, ...) @slurm_xstrfmtcat(ptr noundef %57, ptr noundef @.str.50, i32 noundef %58)
  br label %59

59:                                               ; preds = %55
  br label %60

60:                                               ; preds = %59
  br label %61

61:                                               ; preds = %60, %53
  br label %62

62:                                               ; preds = %61, %35
  br label %63

63:                                               ; preds = %62, %34
  store i32 0, ptr %5, align 4
  br label %64

64:                                               ; preds = %77, %63
  %65 = load i32, ptr %5, align 4
  %66 = load i32, ptr getelementptr inbounds nuw (%struct.pmi2_job_info, ptr @job_info, i32 0, i32 5), align 8
  %67 = icmp ult i32 %65, %66
  br i1 %67, label %68, label %80

68:                                               ; preds = %64
  %69 = load ptr, ptr %6, align 8
  %70 = load ptr, ptr @task_socks, align 8
  %71 = load i32, ptr %5, align 4
  %72 = mul nsw i32 %71, 2
  %73 = sext i32 %72 to i64
  %74 = getelementptr inbounds i32, ptr %70, i64 %73
  %75 = load i32, ptr %74, align 4
  %76 = call i32 @client_resp_send(ptr noundef %69, i32 noundef %75)
  store i32 %76, ptr %3, align 4
  br label %77

77:                                               ; preds = %68
  %78 = load i32, ptr %5, align 4
  %79 = add nsw i32 %78, 1
  store i32 %79, ptr %5, align 4
  br label %64, !llvm.loop !24

80:                                               ; preds = %64
  %81 = load ptr, ptr %6, align 8
  call void @client_resp_free(ptr noundef %81)
  %82 = load i32, ptr %3, align 4
  call void @llvm.lifetime.end.p0(i64 8, ptr %7) #7
  call void @llvm.lifetime.end.p0(i64 8, ptr %6) #7
  call void @llvm.lifetime.end.p0(i64 4, ptr %5) #7
  ret i32 %82
}