; Function Attrs: nounwind uwtable
define dso_local i32 @send_kvs_fence_resp_to_clients(i32 noundef %0, ptr noundef %1) local_unnamed_addr #2 {
  %3 = alloca ptr, align 8
  %4 = alloca ptr, align 8
  call void @llvm.lifetime.start.p0(i64 8, ptr nonnull %4) #11
  %5 = tail call ptr @slurm_xcalloc(i64 noundef 1, i64 noundef 8, i1 noundef zeroext true, i1 noundef zeroext false, ptr noundef nonnull @.str.3, i32 noundef 526, ptr noundef nonnull @__func__.client_resp_new) #11
  %6 = load i32, ptr @pmi_version, align 4
  %7 = icmp ne i32 %6, 1
  %8 = load i32, ptr @pmi_subversion, align 4
  %9 = icmp ne i32 %8, 1
  %.not35 = select i1 %7, i1 true, i1 %9
  br i1 %.not35, label %23, label %10

10:                                               ; preds = %2
  %11 = icmp ne i32 %0, 0
  %12 = icmp ne ptr %1, null
  %or.cond = and i1 %11, %12
  br i1 %or.cond, label %13, label %22

13:                                               ; preds = %10
  %14 = tail call ptr @slurm_xstrdup(ptr noundef nonnull %1) #11
  %15 = load i8, ptr %14, align 1
  %.not9.i = icmp eq i8 %15, 0
  br i1 %.not9.i, label %_str_replace.exit, label %.lr.ph.i

.lr.ph.i:                                         ; preds = %13, %19
  %16 = phi i8 [ %21, %19 ], [ %15, %13 ]
  %.010.i = phi ptr [ %20, %19 ], [ %14, %13 ]
  %17 = icmp eq i8 %16, 32
  br i1 %17, label %18, label %19

18:                                               ; preds = %.lr.ph.i
  store i8 95, ptr %.010.i, align 1
  br label %19

19:                                               ; preds = %18, %.lr.ph.i
  %20 = getelementptr inbounds nuw i8, ptr %.010.i, i64 1
  %21 = load i8, ptr %20, align 1
  %.not.i = icmp eq i8 %21, 0
  br i1 %.not.i, label %_str_replace.exit, label %.lr.ph.i, !llvm.loop !24

_str_replace.exit:                                ; preds = %19, %13
  store ptr %14, ptr %4, align 8
  tail call void (ptr, ptr, ...) @slurm_xstrfmtcat(ptr noundef %5, ptr noundef nonnull @.str.47, i32 noundef %0, ptr noundef nonnull %14) #11
  call void @slurm_xfree(ptr noundef nonnull %4) #11
  br label %39

22:                                               ; preds = %10
  tail call void (ptr, ptr, ...) @slurm_xstrfmtcat(ptr noundef %5, ptr noundef nonnull @.str.48, i32 noundef %0) #11
  br label %39

23:                                               ; preds = %2
  %24 = icmp ne i32 %6, 2
  %25 = icmp ne i32 %8, 0
  %.not37 = select i1 %24, i1 true, i1 %25
  br i1 %.not37, label %39, label %26

26:                                               ; preds = %23
  %27 = icmp ne i32 %0, 0
  %28 = icmp ne ptr %1, null
  %or.cond3 = and i1 %27, %28
  br i1 %or.cond3, label %29, label %38

29:                                               ; preds = %26
  %30 = tail call ptr @slurm_xstrdup(ptr noundef nonnull %1) #11
  %31 = load i8, ptr %30, align 1
  %.not9.i27 = icmp eq i8 %31, 0
  br i1 %.not9.i27, label %_str_replace.exit31, label %.lr.ph.i28

.lr.ph.i28:                                       ; preds = %29, %35
  %32 = phi i8 [ %37, %35 ], [ %31, %29 ]
  %.010.i29 = phi ptr [ %36, %35 ], [ %30, %29 ]
  %33 = icmp eq i8 %32, 59
  br i1 %33, label %34, label %35

34:                                               ; preds = %.lr.ph.i28
  store i8 95, ptr %.010.i29, align 1
  br label %35

35:                                               ; preds = %34, %.lr.ph.i28
  %36 = getelementptr inbounds nuw i8, ptr %.010.i29, i64 1
  %37 = load i8, ptr %36, align 1
  %.not.i30 = icmp eq i8 %37, 0
  br i1 %.not.i30, label %_str_replace.exit31, label %.lr.ph.i28, !llvm.loop !24

_str_replace.exit31:                              ; preds = %35, %29
  store ptr %30, ptr %4, align 8
  tail call void (ptr, ptr, ...) @slurm_xstrfmtcat(ptr noundef %5, ptr noundef nonnull @.str.49, i32 noundef %0, ptr noundef nonnull %30) #11
  call void @slurm_xfree(ptr noundef nonnull %4) #11
  br label %39

38:                                               ; preds = %26
  tail call void (ptr, ptr, ...) @slurm_xstrfmtcat(ptr noundef %5, ptr noundef nonnull @.str.50, i32 noundef %0) #11
  br label %39

39:                                               ; preds = %23, %38, %_str_replace.exit31, %_str_replace.exit, %22
  %40 = load i32, ptr getelementptr inbounds nuw (i8, ptr @job_info, i64 40), align 8
  %.not = icmp eq i32 %40, 0
  br i1 %.not, label %._crit_edge, label %.lr.ph

.lr.ph:                                           ; preds = %39, %.lr.ph
  %indvars.iv = phi i64 [ %indvars.iv.next, %.lr.ph ], [ 0, %39 ]
  %41 = load ptr, ptr @task_socks, align 8
  %.idx = shl nuw nsw i64 %indvars.iv, 3
  %42 = getelementptr inbounds nuw i8, ptr %41, i64 %.idx
  %43 = load i32, ptr %42, align 4
  %44 = call i32 @client_resp_send(ptr noundef %5, i32 noundef %43)
  %indvars.iv.next = add nuw nsw i64 %indvars.iv, 1
  %45 = load i32, ptr getelementptr inbounds nuw (i8, ptr @job_info, i64 40), align 8
  %46 = zext i32 %45 to i64
  %47 = icmp samesign ult i64 %indvars.iv.next, %46
  br i1 %47, label %.lr.ph, label %._crit_edge, !llvm.loop !25

._crit_edge:                                      ; preds = %.lr.ph, %39
  %.0.lcssa = phi i32 [ %0, %39 ], [ %44, %.lr.ph ]
  call void @llvm.lifetime.start.p0(i64 8, ptr nonnull %3)
  store ptr %5, ptr %3, align 8
  %.not.i32 = icmp eq ptr %5, null
  br i1 %.not.i32, label %client_resp_free.exit, label %48

48:                                               ; preds = %._crit_edge
  call void @slurm_xfree(ptr noundef nonnull %5) #11
  call void @slurm_xfree(ptr noundef nonnull %3) #11
  br label %client_resp_free.exit

client_resp_free.exit:                            ; preds = %._crit_edge, %48
  call void @llvm.lifetime.end.p0(i64 8, ptr nonnull %3)
  call void @llvm.lifetime.end.p0(i64 8, ptr nonnull %4) #11
  ret i32 %.0.lcssa
}